target datalayout = "e-m:e-p270:32:32-p271:32:32-p272:64:64-i64:64-i128:128-f80:128-n8:16:32:64-S128"
target triple = "x86_64-pc-linux-gnu"

%struct.TupleDescData = type { i32, i32, i32, i32, ptr, [0 x %struct.CompactAttribute] }
%struct.CompactAttribute = type { i32, i16, i8, i8, i8, i8, i8, i8, i8 }
%struct.ExpandedRecordHeader = type { %struct.ExpandedObjectHeader, i32, i32, i32, i32, i32, ptr, i64, ptr, ptr, i32, i64, i64, i32, i8, ptr, ptr, ptr, ptr, ptr, ptr, %struct.MemoryContextCallback }
%struct.ExpandedObjectHeader = type { i32, ptr, ptr, [10 x i8], [10 x i8] }
%struct.MemoryContextCallback = type { ptr, ptr, ptr }
%struct.HeapTupleData = type { i32, %struct.ItemPointerData, i32, ptr }
%struct.ItemPointerData = type { %struct.BlockIdData, i16 }
%struct.BlockIdData = type { i16, i16 }
%struct.FormData_pg_attribute = type { i32, %struct.nameData, i32, i16, i16, i32, i16, i8, i8, i8, i8, i8, i8, i8, i8, i8, i8, i8, i16, i32 }
%struct.nameData = type { [64 x i8] }
%struct.HeapTupleHeaderData = type { %union.anon, %struct.ItemPointerData, i16, i16, i8, [0 x i8] }
%union.anon = type { %struct.HeapTupleFields }
%struct.HeapTupleFields = type { i32, i32, %union.anon.0 }
%union.anon.0 = type { i32 }

@CurrentMemoryContext = external global ptr, align 8
@.str.4 = private unnamed_addr constant [35 x i8] c"expanded record short-term context\00", align 1

; Function Attrs: inlinehint nounwind uwtable
define internal ptr @DatumGetPointer(i64 noundef %0) #5 {
  %2 = alloca i64, align 8
  store i64 %0, ptr %2, align 8
  %3 = load i64, ptr %2, align 8
  %4 = inttoptr i64 %3 to ptr
  ret ptr %4
}

; Function Attrs: inlinehint nounwind uwtable
define internal ptr @TupleDescAttr(ptr noundef %0, i32 noundef %1) #5 {
  %3 = alloca ptr, align 8
  %4 = alloca i32, align 4
  %5 = alloca ptr, align 8
  store ptr %0, ptr %3, align 8
  store i32 %1, ptr %4, align 4
  call void @llvm.lifetime.start.p0(i64 8, ptr %5) #9
  %6 = load ptr, ptr %3, align 8
  %7 = load ptr, ptr %3, align 8
  %8 = getelementptr inbounds nuw %struct.TupleDescData, ptr %7, i32 0, i32 0
  %9 = load i32, ptr %8, align 8
  %10 = sext i32 %9 to i64
  %11 = mul i64 %10, 16
  %12 = add i64 24, %11
  %13 = getelementptr inbounds nuw i8, ptr %6, i64 %12
  store ptr %13, ptr %5, align 8
  %14 = load ptr, ptr %5, align 8
  %15 = load i32, ptr %4, align 4
  %16 = sext i32 %15 to i64
  %17 = getelementptr inbounds %struct.FormData_pg_attribute, ptr %14, i64 %16
  call void @llvm.lifetime.end.p0(i64 8, ptr %5) #9
  ret ptr %17
}

; Function Attrs: inlinehint nounwind uwtable
define internal ptr @MemoryContextSwitchTo(ptr noundef %0) #5 {
  %2 = alloca ptr, align 8
  %3 = alloca ptr, align 8
  store ptr %0, ptr %2, align 8
  call void @llvm.lifetime.start.p0(i64 8, ptr %3) #9
  %4 = load ptr, ptr @CurrentMemoryContext, align 8
  store ptr %4, ptr %3, align 8
  %5 = load ptr, ptr %2, align 8
  store ptr %5, ptr @CurrentMemoryContext, align 8
  %6 = load ptr, ptr %3, align 8
  call void @llvm.lifetime.end.p0(i64 8, ptr %3) #9
  ret ptr %6
}

; Function Attrs: nounwind uwtable
define internal ptr @get_short_term_cxt(ptr noundef %0) #0 {
  %2 = alloca ptr, align 8
  %3 = alloca i32, align 4
  store ptr %0, ptr %2, align 8
  %4 = load ptr, ptr %2, align 8
  %5 = getelementptr inbounds nuw %struct.ExpandedRecordHeader, ptr %4, i32 0, i32 18
  %6 = load ptr, ptr %5, align 8
  %7 = icmp eq ptr %6, null
  br i1 %7, label %8, label %18

8:                                                ; preds = %1
  br label %9

9:                                                ; preds = %8
  br label %10

10:                                               ; preds = %9
  store i32 1, ptr %3, align 4
  %11 = load ptr, ptr %2, align 8
  %12 = getelementptr inbounds nuw %struct.ExpandedRecordHeader, ptr %11, i32 0, i32 0
  %13 = getelementptr inbounds nuw %struct.ExpandedObjectHeader, ptr %12, i32 0, i32 2
  %14 = load ptr, ptr %13, align 8
  %15 = call ptr @AllocSetContextCreateInternal(ptr noundef %14, ptr noundef @.str.4, i64 noundef 0, i64 noundef 1024, i64 noundef 8192)
  %16 = load ptr, ptr %2, align 8
  %17 = getelementptr inbounds nuw %struct.ExpandedRecordHeader, ptr %16, i32 0, i32 18
  store ptr %15, ptr %17, align 8
  br label %22

18:                                               ; preds = %1
  %19 = load ptr, ptr %2, align 8
  %20 = getelementptr inbounds nuw %struct.ExpandedRecordHeader, ptr %19, i32 0, i32 18
  %21 = load ptr, ptr %20, align 8
  call void @MemoryContextReset(ptr noundef %21)
  br label %22

22:                                               ; preds = %18, %10
  %23 = load ptr, ptr %2, align 8
  %24 = getelementptr inbounds nuw %struct.ExpandedRecordHeader, ptr %23, i32 0, i32 18
  %25 = load ptr, ptr %24, align 8
  ret ptr %25
}

; Function Attrs: inlinehint nounwind uwtable
define internal zeroext i1 @HeapTupleHasExternal(ptr noundef %0) #5 {
  %2 = alloca ptr, align 8
  store ptr %0, ptr %2, align 8
  %3 = load ptr, ptr %2, align 8
  %4 = getelementptr inbounds nuw %struct.HeapTupleData, ptr %3, i32 0, i32 3
  %5 = load ptr, ptr %4, align 8
  %6 = getelementptr inbounds nuw %struct.HeapTupleHeaderData, ptr %5, i32 0, i32 3
  %7 = load i16, ptr %6, align 4
  %8 = zext i16 %7 to i32
  %9 = and i32 %8, 4
  %10 = icmp ne i32 %9, 0
  ret i1 %10
}

; Function Attrs: nounwind uwtable
define dso_local void @expanded_record_set_tuple(ptr noundef %0, ptr noundef %1, i1 noundef zeroext %2, i1 noundef zeroext %3) #0 {
  %5 = alloca ptr, align 8
  %6 = alloca ptr, align 8
  %7 = alloca i8, align 1
  %8 = alloca i8, align 1
  %9 = alloca i32, align 4
  %10 = alloca ptr, align 8
  %11 = alloca ptr, align 8
  %12 = alloca ptr, align 8
  %13 = alloca i32, align 4
  %14 = alloca ptr, align 8
  %15 = alloca ptr, align 8
  %16 = alloca ptr, align 8
  %17 = alloca i32, align 4
  %18 = alloca ptr, align 8
  store ptr %0, ptr %5, align 8
  store ptr %1, ptr %6, align 8
  %19 = zext i1 %2 to i8
  store i8 %19, ptr %7, align 1
  %20 = zext i1 %3 to i8
  store i8 %20, ptr %8, align 1
  call void @llvm.lifetime.start.p0(i64 4, ptr %9) #9
  call void @llvm.lifetime.start.p0(i64 8, ptr %10) #9
  call void @llvm.lifetime.start.p0(i64 8, ptr %11) #9
  call void @llvm.lifetime.start.p0(i64 8, ptr %12) #9
  call void @llvm.lifetime.start.p0(i64 4, ptr %13) #9
  call void @llvm.lifetime.start.p0(i64 8, ptr %14) #9
  call void @llvm.lifetime.start.p0(i64 8, ptr %15) #9
  %21 = load ptr, ptr %5, align 8
  %22 = getelementptr inbounds nuw %struct.ExpandedRecordHeader, ptr %21, i32 0, i32 2
  %23 = load i32, ptr %22, align 4
  %24 = and i32 %23, 64
  %25 = icmp ne i32 %24, 0
  br i1 %25, label %26, label %29

26:                                               ; preds = %4
  %27 = load ptr, ptr %5, align 8
  %28 = load ptr, ptr %6, align 8
  call void @check_domain_for_new_tuple(ptr noundef %27, ptr noundef %28)
  br label %29

29:                                               ; preds = %26, %4
  %30 = load i8, ptr %8, align 1, !range !4, !noundef !5
  %31 = trunc i8 %30 to i1
  br i1 %31, label %32, label %51

32:                                               ; preds = %29
  %33 = load ptr, ptr %6, align 8
  %34 = icmp ne ptr %33, null
  br i1 %34, label %35, label %51

35:                                               ; preds = %32
  %36 = load ptr, ptr %6, align 8
  %37 = call zeroext i1 @HeapTupleHasExternal(ptr noundef %36)
  br i1 %37, label %38, label %49

38:                                               ; preds = %35
  %39 = load ptr, ptr %5, align 8
  %40 = call ptr @get_short_term_cxt(ptr noundef %39)
  %41 = call ptr @MemoryContextSwitchTo(ptr noundef %40)
  store ptr %41, ptr %15, align 8
  %42 = load ptr, ptr %6, align 8
  %43 = load ptr, ptr %5, align 8
  %44 = getelementptr inbounds nuw %struct.ExpandedRecordHeader, ptr %43, i32 0, i32 6
  %45 = load ptr, ptr %44, align 8
  %46 = call ptr @toast_flatten_tuple(ptr noundef %42, ptr noundef %45)
  store ptr %46, ptr %6, align 8
  %47 = load ptr, ptr %15, align 8
  %48 = call ptr @MemoryContextSwitchTo(ptr noundef %47)
  br label %50

49:                                               ; preds = %35
  store i8 0, ptr %8, align 1
  br label %50

50:                                               ; preds = %49, %38
  br label %51

51:                                               ; preds = %50, %32, %29
  %52 = load ptr, ptr %5, align 8
  %53 = getelementptr inbounds nuw %struct.ExpandedRecordHeader, ptr %52, i32 0, i32 2
  %54 = load i32, ptr %53, align 4
  store i32 %54, ptr %9, align 4
  %55 = load i32, ptr %9, align 4
  %56 = and i32 %55, 224
  store i32 %56, ptr %13, align 4
  %57 = load i8, ptr %7, align 1, !range !4, !noundef !5
  %58 = trunc i8 %57 to i1
  br i1 %58, label %59, label %81

59:                                               ; preds = %51
  %60 = load ptr, ptr %6, align 8
  %61 = icmp ne ptr %60, null
  br i1 %61, label %62, label %81

62:                                               ; preds = %59
  %63 = load ptr, ptr %5, align 8
  %64 = getelementptr inbounds nuw %struct.ExpandedRecordHeader, ptr %63, i32 0, i32 0
  %65 = getelementptr inbounds nuw %struct.ExpandedObjectHeader, ptr %64, i32 0, i32 2
  %66 = load ptr, ptr %65, align 8
  %67 = call ptr @MemoryContextSwitchTo(ptr noundef %66)
  store ptr %67, ptr %15, align 8
  %68 = load ptr, ptr %6, align 8
  %69 = call ptr @heap_copytuple(ptr noundef %68)
  store ptr %69, ptr %14, align 8
  %70 = load i32, ptr %13, align 4
  %71 = or i32 %70, 2
  store i32 %71, ptr %13, align 4
  %72 = load ptr, ptr %15, align 8
  %73 = call ptr @MemoryContextSwitchTo(ptr noundef %72)
  %74 = load i8, ptr %8, align 1, !range !4, !noundef !5
  %75 = trunc i8 %74 to i1
  br i1 %75, label %76, label %80

76:                                               ; preds = %62
  %77 = load ptr, ptr %5, align 8
  %78 = getelementptr inbounds nuw %struct.ExpandedRecordHeader, ptr %77, i32 0, i32 18
  %79 = load ptr, ptr %78, align 8
  call void @MemoryContextReset(ptr noundef %79)
  br label %80

80:                                               ; preds = %76, %62
  br label %83

81:                                               ; preds = %59, %51
  %82 = load ptr, ptr %6, align 8
  store ptr %82, ptr %14, align 8
  br label %83

83:                                               ; preds = %81, %80
  %84 = load ptr, ptr %5, align 8
  %85 = getelementptr inbounds nuw %struct.ExpandedRecordHeader, ptr %84, i32 0, i32 15
  %86 = load ptr, ptr %85, align 8
  store ptr %86, ptr %10, align 8
  %87 = load ptr, ptr %5, align 8
  %88 = getelementptr inbounds nuw %struct.ExpandedRecordHeader, ptr %87, i32 0, i32 16
  %89 = load ptr, ptr %88, align 8
  store ptr %89, ptr %11, align 8
  %90 = load ptr, ptr %5, align 8
  %91 = getelementptr inbounds nuw %struct.ExpandedRecordHeader, ptr %90, i32 0, i32 17
  %92 = load ptr, ptr %91, align 8
  store ptr %92, ptr %12, align 8
  %93 = load ptr, ptr %14, align 8
  %94 = icmp ne ptr %93, null
  br i1 %94, label %95, label %122

95:                                               ; preds = %83
  %96 = load ptr, ptr %14, align 8
  %97 = load ptr, ptr %5, align 8
  %98 = getelementptr inbounds nuw %struct.ExpandedRecordHeader, ptr %97, i32 0, i32 15
  store ptr %96, ptr %98, align 8
  %99 = load ptr, ptr %14, align 8
  %100 = getelementptr inbounds nuw %struct.HeapTupleData, ptr %99, i32 0, i32 3
  %101 = load ptr, ptr %100, align 8
  %102 = load ptr, ptr %5, align 8
  %103 = getelementptr inbounds nuw %struct.ExpandedRecordHeader, ptr %102, i32 0, i32 16
  store ptr %101, ptr %103, align 8
  %104 = load ptr, ptr %14, align 8
  %105 = getelementptr inbounds nuw %struct.HeapTupleData, ptr %104, i32 0, i32 3
  %106 = load ptr, ptr %105, align 8
  %107 = load ptr, ptr %14, align 8
  %108 = getelementptr inbounds nuw %struct.HeapTupleData, ptr %107, i32 0, i32 0
  %109 = load i32, ptr %108, align 8
  %110 = zext i32 %109 to i64
  %111 = getelementptr inbounds nuw i8, ptr %106, i64 %110
  %112 = load ptr, ptr %5, align 8
  %113 = getelementptr inbounds nuw %struct.ExpandedRecordHeader, ptr %112, i32 0, i32 17
  store ptr %111, ptr %113, align 8
  %114 = load i32, ptr %13, align 4
  %115 = or i32 %114, 1
  store i32 %115, ptr %13, align 4
  %116 = load ptr, ptr %14, align 8
  %117 = call zeroext i1 @HeapTupleHasExternal(ptr noundef %116)
  br i1 %117, label %118, label %121

118:                                              ; preds = %95
  %119 = load i32, ptr %13, align 4
  %120 = or i32 %119, 16
  store i32 %120, ptr %13, align 4
  br label %121

121:                                              ; preds = %118, %95
  br label %129

122:                                              ; preds = %83
  %123 = load ptr, ptr %5, align 8
  %124 = getelementptr inbounds nuw %struct.ExpandedRecordHeader, ptr %123, i32 0, i32 15
  store ptr null, ptr %124, align 8
  %125 = load ptr, ptr %5, align 8
  %126 = getelementptr inbounds nuw %struct.ExpandedRecordHeader, ptr %125, i32 0, i32 17
  store ptr null, ptr %126, align 8
  %127 = load ptr, ptr %5, align 8
  %128 = getelementptr inbounds nuw %struct.ExpandedRecordHeader, ptr %127, i32 0, i32 16
  store ptr null, ptr %128, align 8
  br label %129

129:                                              ; preds = %122, %121
  %130 = load i32, ptr %13, align 4
  %131 = load ptr, ptr %5, align 8
  %132 = getelementptr inbounds nuw %struct.ExpandedRecordHeader, ptr %131, i32 0, i32 2
  store i32 %130, ptr %132, align 4
  %133 = load ptr, ptr %5, align 8
  %134 = getelementptr inbounds nuw %struct.ExpandedRecordHeader, ptr %133, i32 0, i32 11
  store i64 0, ptr %134, align 8
  %135 = load i32, ptr %9, align 4
  %136 = and i32 %135, 8
  %137 = icmp ne i32 %136, 0
  br i1 %137, label %138, label %188

138:                                              ; preds = %129
  call void @llvm.lifetime.start.p0(i64 8, ptr %16) #9
  %139 = load ptr, ptr %5, align 8
  %140 = getelementptr inbounds nuw %struct.ExpandedRecordHeader, ptr %139, i32 0, i32 6
  %141 = load ptr, ptr %140, align 8
  store ptr %141, ptr %16, align 8
  call void @llvm.lifetime.start.p0(i64 4, ptr %17) #9
  store i32 0, ptr %17, align 4
  br label %142

142:                                              ; preds = %184, %138
  %143 = load i32, ptr %17, align 4
  %144 = load ptr, ptr %5, align 8
  %145 = getelementptr inbounds nuw %struct.ExpandedRecordHeader, ptr %144, i32 0, i32 10
  %146 = load i32, ptr %145, align 8
  %147 = icmp slt i32 %143, %146
  br i1 %147, label %148, label %187

148:                                              ; preds = %142
  %149 = load ptr, ptr %5, align 8
  %150 = getelementptr inbounds nuw %struct.ExpandedRecordHeader, ptr %149, i32 0, i32 9
  %151 = load ptr, ptr %150, align 8
  %152 = load i32, ptr %17, align 4
  %153 = sext i32 %152 to i64
  %154 = getelementptr inbounds i8, ptr %151, i64 %153
  %155 = load i8, ptr %154, align 1, !range !4, !noundef !5
  %156 = trunc i8 %155 to i1
  br i1 %156, label %183, label %157

157:                                              ; preds = %148
  %158 = load ptr, ptr %16, align 8
  %159 = load i32, ptr %17, align 4
  %160 = call ptr @TupleDescAttr(ptr noundef %158, i32 noundef %159)
  %161 = getelementptr inbounds nuw %struct.FormData_pg_attribute, ptr %160, i32 0, i32 7
  %162 = load i8, ptr %161, align 2, !range !4, !noundef !5
  %163 = trunc i8 %162 to i1
  br i1 %163, label %183, label %164

164:                                              ; preds = %157
  call void @llvm.lifetime.start.p0(i64 8, ptr %18) #9
  %165 = load ptr, ptr %5, align 8
  %166 = getelementptr inbounds nuw %struct.ExpandedRecordHeader, ptr %165, i32 0, i32 8
  %167 = load ptr, ptr %166, align 8
  %168 = load i32, ptr %17, align 4
  %169 = sext i32 %168 to i64
  %170 = getelementptr inbounds i64, ptr %167, i64 %169
  %171 = load i64, ptr %170, align 8
  %172 = call ptr @DatumGetPointer(i64 noundef %171)
  store ptr %172, ptr %18, align 8
  %173 = load ptr, ptr %18, align 8
  %174 = load ptr, ptr %11, align 8
  %175 = icmp ult ptr %173, %174
  br i1 %175, label %180, label %176

176:                                              ; preds = %164
  %177 = load ptr, ptr %18, align 8
  %178 = load ptr, ptr %12, align 8
  %179 = icmp uge ptr %177, %178
  br i1 %179, label %180, label %182

180:                                              ; preds = %176, %164
  %181 = load ptr, ptr %18, align 8
  call void @pfree(ptr noundef %181)
  br label %182

182:                                              ; preds = %180, %176
  call void @llvm.lifetime.end.p0(i64 8, ptr %18) #9
  br label %183

183:                                              ; preds = %182, %157, %148
  br label %184

184:                                              ; preds = %183
  %185 = load i32, ptr %17, align 4
  %186 = add i32 %185, 1
  store i32 %186, ptr %17, align 4
  br label %142, !llvm.loop !6

187:                                              ; preds = %142
  call void @llvm.lifetime.end.p0(i64 4, ptr %17) #9
  call void @llvm.lifetime.end.p0(i64 8, ptr %16) #9
  br label %188

188:                                              ; preds = %187, %129
  %189 = load i32, ptr %9, align 4
  %190 = and i32 %189, 2
  %191 = icmp ne i32 %190, 0
  br i1 %191, label %192, label %194

192:                                              ; preds = %188
  %193 = load ptr, ptr %10, align 8
  call void @heap_freetuple(ptr noundef %193)
  br label %194

194:                                              ; preds = %192, %188
  call void @llvm.lifetime.end.p0(i64 8, ptr %15) #9
  call void @llvm.lifetime.end.p0(i64 8, ptr %14) #9
  call void @llvm.lifetime.end.p0(i64 4, ptr %13) #9
  call void @llvm.lifetime.end.p0(i64 8, ptr %12) #9
  call void @llvm.lifetime.end.p0(i64 8, ptr %11) #9
  call void @llvm.lifetime.end.p0(i64 8, ptr %10) #9
  call void @llvm.lifetime.end.p0(i64 4, ptr %9) #9
  ret void
}