; Function Attrs: nounwind uwtable
define dso_local void @expanded_record_set_tuple(ptr noundef %0, ptr noundef %1, i1 noundef zeroext %2, i1 noundef zeroext %3) local_unnamed_addr #0 {
  %5 = getelementptr inbounds nuw i8, ptr %0, i64 52
  %6 = load i32, ptr %5, align 4
  %7 = and i32 %6, 64
  %.not = icmp eq i32 %7, 0
  br i1 %.not, label %9, label %8

8:                                                ; preds = %4
  tail call fastcc void @check_domain_for_new_tuple(ptr noundef nonnull %0, ptr noundef %1)
  br label %9

9:                                                ; preds = %8, %4
  %10 = icmp ne ptr %1, null
  %or.cond = and i1 %10, %3
  br i1 %or.cond, label %11, label %29

11:                                               ; preds = %9
  %12 = getelementptr i8, ptr %1, i64 16
  %.val = load ptr, ptr %12, align 8
  %13 = getelementptr i8, ptr %.val, i64 20
  %.val.val = load i16, ptr %13, align 4
  %14 = and i16 %.val.val, 4
  %.not72 = icmp eq i16 %14, 0
  br i1 %.not72, label %29, label %15

15:                                               ; preds = %11
  %16 = getelementptr inbounds nuw i8, ptr %0, i64 160
  %17 = load ptr, ptr %16, align 8
  %18 = icmp eq ptr %17, null
  br i1 %18, label %19, label %23

19:                                               ; preds = %15
  %20 = getelementptr inbounds nuw i8, ptr %0, i64 16
  %21 = load ptr, ptr %20, align 8
  %22 = tail call ptr @AllocSetContextCreateInternal(ptr noundef %21, ptr noundef nonnull @.str.4, i64 noundef 0, i64 noundef 1024, i64 noundef 8192) #8
  store ptr %22, ptr %16, align 8
  br label %get_short_term_cxt.exit

23:                                               ; preds = %15
  tail call void @MemoryContextReset(ptr noundef nonnull %17) #8
  %.pre.i = load ptr, ptr %16, align 8
  br label %get_short_term_cxt.exit

get_short_term_cxt.exit:                          ; preds = %19, %23
  %24 = phi ptr [ %.pre.i, %23 ], [ %22, %19 ]
  %25 = load ptr, ptr @CurrentMemoryContext, align 8
  store ptr %24, ptr @CurrentMemoryContext, align 8
  %26 = getelementptr inbounds nuw i8, ptr %0, i64 72
  %27 = load ptr, ptr %26, align 8
  %28 = tail call ptr @toast_flatten_tuple(ptr noundef nonnull %1, ptr noundef %27) #8
  store ptr %25, ptr @CurrentMemoryContext, align 8
  br label %29

29:                                               ; preds = %11, %get_short_term_cxt.exit, %9
  %.062.shrunk = phi i1 [ true, %get_short_term_cxt.exit ], [ %3, %9 ], [ false, %11 ]
  %.0 = phi ptr [ %28, %get_short_term_cxt.exit ], [ %1, %9 ], [ %1, %11 ]
  %30 = load i32, ptr %5, align 4
  %31 = and i32 %30, 224
  %32 = icmp ne ptr %.0, null
  %or.cond3 = select i1 %2, i1 %32, i1 false
  br i1 %or.cond3, label %33, label %42

33:                                               ; preds = %29
  %34 = getelementptr inbounds nuw i8, ptr %0, i64 16
  %35 = load ptr, ptr %34, align 8
  %36 = load ptr, ptr @CurrentMemoryContext, align 8
  store ptr %35, ptr @CurrentMemoryContext, align 8
  %37 = tail call ptr @heap_copytuple(ptr noundef nonnull %.0) #8
  %38 = or disjoint i32 %31, 2
  store ptr %36, ptr @CurrentMemoryContext, align 8
  br i1 %.062.shrunk, label %39, label %42

39:                                               ; preds = %33
  %40 = getelementptr inbounds nuw i8, ptr %0, i64 160
  %41 = load ptr, ptr %40, align 8
  tail call void @MemoryContextReset(ptr noundef %41) #8
  br label %42

42:                                               ; preds = %29, %33, %39
  %.064 = phi i32 [ %38, %39 ], [ %38, %33 ], [ %31, %29 ]
  %.063 = phi ptr [ %37, %39 ], [ %37, %33 ], [ %.0, %29 ]
  %43 = getelementptr inbounds nuw i8, ptr %0, i64 136
  %44 = load ptr, ptr %43, align 8
  %45 = getelementptr inbounds nuw i8, ptr %0, i64 144
  %46 = load ptr, ptr %45, align 8
  %47 = getelementptr inbounds nuw i8, ptr %0, i64 152
  %48 = load ptr, ptr %47, align 8
  %.not67 = icmp eq ptr %.063, null
  br i1 %.not67, label %57, label %49

49:                                               ; preds = %42
  store ptr %.063, ptr %43, align 8
  %50 = getelementptr inbounds nuw i8, ptr %.063, i64 16
  %51 = load ptr, ptr %50, align 8
  store ptr %51, ptr %45, align 8
  %52 = load i32, ptr %.063, align 8
  %53 = zext i32 %52 to i64
  %54 = getelementptr inbounds nuw i8, ptr %51, i64 %53
  store ptr %54, ptr %47, align 8
  %.063.val = load ptr, ptr %50, align 8
  %55 = getelementptr i8, ptr %.063.val, i64 20
  %.063.val.val = load i16, ptr %55, align 4
  %56 = and i16 %.063.val.val, 4
  %.not73 = icmp eq i16 %56, 0
  %spec.select.v = select i1 %.not73, i32 1, i32 17
  %spec.select = or i32 %spec.select.v, %.064
  br label %58

57:                                               ; preds = %42
  tail call void @llvm.memset.p0.i64(ptr noundef nonnull align 8 dereferenceable(24) %43, i8 0, i64 24, i1 false)
  br label %58

58:                                               ; preds = %49, %57
  %.1 = phi i32 [ %.064, %57 ], [ %spec.select, %49 ]
  store i32 %.1, ptr %5, align 4
  %59 = getelementptr inbounds nuw i8, ptr %0, i64 112
  store i64 0, ptr %59, align 8
  %60 = and i32 %30, 8
  %.not68 = icmp eq i32 %60, 0
  br i1 %.not68, label %.loopexit, label %61

61:                                               ; preds = %58
  %62 = getelementptr inbounds nuw i8, ptr %0, i64 72
  %63 = load ptr, ptr %62, align 8
  %64 = getelementptr inbounds nuw i8, ptr %0, i64 104
  %invariant.gep = getelementptr i8, ptr %63, i64 106
  %65 = load i32, ptr %64, align 8
  %66 = icmp sgt i32 %65, 0
  br i1 %66, label %.lr.ph, label %.loopexit

.lr.ph:                                           ; preds = %61
  %67 = getelementptr inbounds nuw i8, ptr %0, i64 96
  %68 = getelementptr inbounds nuw i8, ptr %0, i64 88
  br label %69

69:                                               ; preds = %.lr.ph, %89
  %70 = phi i32 [ %65, %.lr.ph ], [ %90, %89 ]
  %indvars.iv = phi i64 [ 0, %.lr.ph ], [ %indvars.iv.next, %89 ]
  %71 = load ptr, ptr %67, align 8
  %72 = getelementptr inbounds nuw i8, ptr %71, i64 %indvars.iv
  %73 = load i8, ptr %72, align 1, !range !5, !noundef !6
  %74 = trunc nuw i8 %73 to i1
  br i1 %74, label %89, label %75

75:                                               ; preds = %69
  %76 = load i32, ptr %63, align 8
  %77 = sext i32 %76 to i64
  %78 = shl nsw i64 %77, 4
  %.idx = mul nuw nsw i64 %indvars.iv, 100
  %gep = getelementptr i8, ptr %invariant.gep, i64 %78
  %79 = getelementptr i8, ptr %gep, i64 %.idx
  %80 = load i8, ptr %79, align 2, !range !5, !noundef !6
  %81 = trunc nuw i8 %80 to i1
  br i1 %81, label %89, label %82

82:                                               ; preds = %75
  %83 = load ptr, ptr %68, align 8
  %84 = getelementptr inbounds nuw i64, ptr %83, i64 %indvars.iv
  %85 = load i64, ptr %84, align 8
  %86 = inttoptr i64 %85 to ptr
  %87 = icmp ule ptr %46, %86
  %.not70 = icmp ugt ptr %48, %86
  %or.cond71 = select i1 %87, i1 %.not70, i1 false
  br i1 %or.cond71, label %89, label %88

88:                                               ; preds = %82
  tail call void @pfree(ptr noundef %86) #8
  %.pre = load i32, ptr %64, align 8
  br label %89

89:                                               ; preds = %88, %82, %69, %75
  %90 = phi i32 [ %.pre, %88 ], [ %70, %82 ], [ %70, %69 ], [ %70, %75 ]
  %indvars.iv.next = add nuw nsw i64 %indvars.iv, 1
  %91 = sext i32 %90 to i64
  %92 = icmp slt i64 %indvars.iv.next, %91
  br i1 %92, label %69, label %.loopexit, !llvm.loop !7

.loopexit:                                        ; preds = %89, %61, %58
  %93 = and i32 %30, 2
  %.not69 = icmp eq i32 %93, 0
  br i1 %.not69, label %95, label %94

94:                                               ; preds = %.loopexit
  tail call void @heap_freetuple(ptr noundef %44) #8
  br label %95

95:                                               ; preds = %94, %.loopexit
  ret void
}